; Function Attrs: nounwind uwtable
define internal noundef i32 @png_handle_IEND(ptr noalias noundef %0, ptr noalias readnone captures(none) %1, i32 noundef %2) #0 {
  %4 = getelementptr inbounds nuw i8, ptr %0, i64 300
  %5 = load i32, ptr %4, align 4, !tbaa !24
  %6 = or i32 %5, 24
  store i32 %6, ptr %4, align 4, !tbaa !24
  %.not = icmp eq i32 %2, 0
  br i1 %.not, label %.split, label %.split5

.split5:                                          ; preds = %3
  tail call void @png_chunk_benign_error(ptr noundef nonnull %0, ptr noundef nonnull @.str.30) #12
  br label %.split

.split:                                           ; preds = %3, %.split5
  %.sink = phi i32 [ %2, %.split5 ], [ 0, %3 ]
  %7 = tail call fastcc i32 @png_crc_finish_critical(ptr noundef nonnull %0, i32 noundef %.sink, i32 noundef 1)
  ret i32 3
}